target datalayout = "e-m:e-p270:32:32-p271:32:32-p272:64:64-i64:64-i128:128-f80:128-n8:16:32:64-S128"
target triple = "x86_64-pc-linux-gnu"

%struct.Abc_TtStore_t_ = type { i32, i32, i32, ptr }

@Abc_TruthHashKey.s_BigPrimes = internal global [7 x i32] [i32 12582917, i32 25165843, i32 50331653, i32 100663319, i32 201326611, i32 402653189, i32 805306457], align 16

; Function Attrs: nounwind uwtable
define internal i32 @Abc_TruthHashLookup(ptr noundef %0, i32 noundef %1, i32 noundef %2, ptr noundef %3, ptr noundef %4, i32 noundef %5) #0 {
  %7 = alloca i32, align 4
  %8 = alloca ptr, align 8
  %9 = alloca i32, align 4
  %10 = alloca i32, align 4
  %11 = alloca ptr, align 8
  %12 = alloca ptr, align 8
  %13 = alloca i32, align 4
  %14 = alloca i32, align 4
  store ptr %0, ptr %8, align 8
  store i32 %1, ptr %9, align 4
  store i32 %2, ptr %10, align 4
  store ptr %3, ptr %11, align 8
  store ptr %4, ptr %12, align 8
  store i32 %5, ptr %13, align 4
  %15 = load ptr, ptr %11, align 8
  %16 = load i32, ptr %13, align 4
  %17 = sext i32 %16 to i64
  %18 = getelementptr inbounds i32, ptr %15, i64 %17
  %19 = load i32, ptr %18, align 4
  store i32 %19, ptr %14, align 4
  br label %20

20:                                               ; preds = %41, %6
  %21 = load i32, ptr %14, align 4
  %22 = icmp ne i32 %21, -1
  br i1 %22, label %23, label %47

23:                                               ; preds = %20
  %24 = load ptr, ptr %8, align 8
  %25 = load i32, ptr %14, align 4
  %26 = sext i32 %25 to i64
  %27 = getelementptr inbounds ptr, ptr %24, i64 %26
  %28 = load ptr, ptr %27, align 8
  %29 = load ptr, ptr %8, align 8
  %30 = load i32, ptr %9, align 4
  %31 = sext i32 %30 to i64
  %32 = getelementptr inbounds ptr, ptr %29, i64 %31
  %33 = load ptr, ptr %32, align 8
  %34 = load i32, ptr %10, align 4
  %35 = sext i32 %34 to i64
  %36 = mul i64 8, %35
  %37 = call i32 @memcmp(ptr noundef %28, ptr noundef %33, i64 noundef %36) #9
  %38 = icmp ne i32 %37, 0
  br i1 %38, label %40, label %39

39:                                               ; preds = %23
  store i32 1, ptr %7, align 4
  br label %48

40:                                               ; preds = %23
  br label %41

41:                                               ; preds = %40
  %42 = load ptr, ptr %12, align 8
  %43 = load i32, ptr %14, align 4
  %44 = sext i32 %43 to i64
  %45 = getelementptr inbounds i32, ptr %42, i64 %44
  %46 = load i32, ptr %45, align 4
  store i32 %46, ptr %14, align 4
  br label %20, !llvm.loop !10

47:                                               ; preds = %20
  store i32 0, ptr %7, align 4
  br label %48

48:                                               ; preds = %47, %39
  %49 = load i32, ptr %7, align 4
  ret i32 %49
}

; Function Attrs: nounwind uwtable
define internal i32 @Abc_TruthHashKey(ptr noundef %0, i32 noundef %1, i32 noundef %2) #0 {
  %4 = alloca ptr, align 8
  %5 = alloca i32, align 4
  %6 = alloca i32, align 4
  %7 = alloca i32, align 4
  %8 = alloca i64, align 8
  store ptr %0, ptr %4, align 8
  store i32 %1, ptr %5, align 4
  store i32 %2, ptr %6, align 4
  store i64 0, ptr %8, align 8
  store i32 0, ptr %7, align 4
  br label %9

9:                                                ; preds = %28, %3
  %10 = load i32, ptr %7, align 4
  %11 = load i32, ptr %5, align 4
  %12 = icmp slt i32 %10, %11
  br i1 %12, label %13, label %31

13:                                               ; preds = %9
  %14 = load ptr, ptr %4, align 8
  %15 = load i32, ptr %7, align 4
  %16 = sext i32 %15 to i64
  %17 = getelementptr inbounds i64, ptr %14, i64 %16
  %18 = load i64, ptr %17, align 8
  %19 = load i32, ptr %7, align 4
  %20 = srem i32 %19, 7
  %21 = sext i32 %20 to i64
  %22 = getelementptr inbounds [7 x i32], ptr @Abc_TruthHashKey.s_BigPrimes, i64 0, i64 %21
  %23 = load i32, ptr %22, align 4
  %24 = zext i32 %23 to i64
  %25 = mul i64 %18, %24
  %26 = load i64, ptr %8, align 8
  %27 = add i64 %26, %25
  store i64 %27, ptr %8, align 8
  br label %28

28:                                               ; preds = %13
  %29 = load i32, ptr %7, align 4
  %30 = add nsw i32 %29, 1
  store i32 %30, ptr %7, align 4
  br label %9, !llvm.loop !9

31:                                               ; preds = %9
  %32 = load i64, ptr %8, align 8
  %33 = load i32, ptr %6, align 4
  %34 = sext i32 %33 to i64
  %35 = urem i64 %32, %34
  %36 = trunc i64 %35 to i32
  ret i32 %36
}

; Function Attrs: nounwind uwtable
define internal i32 @Abc_PrimeCudd(i32 noundef %0) #0 {
  %2 = alloca i32, align 4
  %3 = alloca i32, align 4
  %4 = alloca i32, align 4
  store i32 %0, ptr %2, align 4
  %5 = load i32, ptr %2, align 4
  %6 = add i32 %5, -1
  store i32 %6, ptr %2, align 4
  br label %7

7:                                                ; preds = %32, %1
  %8 = load i32, ptr %2, align 4
  %9 = add i32 %8, 1
  store i32 %9, ptr %2, align 4
  %10 = load i32, ptr %2, align 4
  %11 = and i32 %10, 1
  %12 = icmp ne i32 %11, 0
  br i1 %12, label %13, label %30

13:                                               ; preds = %7
  store i32 1, ptr %4, align 4
  store i32 3, ptr %3, align 4
  br label %14

14:                                               ; preds = %26, %13
  %15 = load i32, ptr %3, align 4
  %16 = load i32, ptr %3, align 4
  %17 = mul nsw i32 %15, %16
  %18 = load i32, ptr %2, align 4
  %19 = icmp ule i32 %17, %18
  br i1 %19, label %20, label %29

20:                                               ; preds = %14
  %21 = load i32, ptr %2, align 4
  %22 = load i32, ptr %3, align 4
  %23 = urem i32 %21, %22
  %24 = icmp eq i32 %23, 0
  br i1 %24, label %25, label %26

25:                                               ; preds = %20
  store i32 0, ptr %4, align 4
  br label %29

26:                                               ; preds = %20
  %27 = load i32, ptr %3, align 4
  %28 = add nsw i32 %27, 2
  store i32 %28, ptr %3, align 4
  br label %14, !llvm.loop !7

29:                                               ; preds = %25, %14
  br label %31

30:                                               ; preds = %7
  store i32 0, ptr %4, align 4
  br label %31

31:                                               ; preds = %30, %29
  br label %32

32:                                               ; preds = %31
  %33 = load i32, ptr %4, align 4
  %34 = icmp ne i32 %33, 0
  %35 = xor i1 %34, true
  br i1 %35, label %7, label %36, !llvm.loop !8

36:                                               ; preds = %32
  %37 = load i32, ptr %2, align 4
  ret i32 %37
}

; Function Attrs: nounwind uwtable
define i32 @Abc_TruthNpnCountUnique(ptr noundef %0) #0 {
  %2 = alloca ptr, align 8
  %3 = alloca i32, align 4
  %4 = alloca ptr, align 8
  %5 = alloca ptr, align 8
  %6 = alloca i32, align 4
  %7 = alloca i32, align 4
  %8 = alloca i32, align 4
  store ptr %0, ptr %2, align 8
  %9 = load ptr, ptr %2, align 8
  %10 = getelementptr inbounds %struct.Abc_TtStore_t_, ptr %9, i32 0, i32 2
  %11 = load i32, ptr %10, align 8
  %12 = call i32 @Abc_PrimeCudd(i32 noundef %11)
  store i32 %12, ptr %3, align 4
  %13 = load i32, ptr %3, align 4
  %14 = sext i32 %13 to i64
  %15 = mul i64 4, %14
  %16 = call noalias ptr @malloc(i64 noundef %15) #7
  %17 = load i32, ptr %3, align 4
  %18 = sext i32 %17 to i64
  %19 = mul i64 4, %18
  call void @llvm.memset.p0.i64(ptr align 1 %16, i8 -1, i64 %19, i1 false)
  store ptr %16, ptr %4, align 8
  %20 = load i32, ptr %3, align 4
  %21 = sext i32 %20 to i64
  %22 = mul i64 4, %21
  %23 = call noalias ptr @malloc(i64 noundef %22) #7
  %24 = load i32, ptr %3, align 4
  %25 = sext i32 %24 to i64
  %26 = mul i64 4, %25
  call void @llvm.memset.p0.i64(ptr align 1 %23, i8 -1, i64 %26, i1 false)
  store ptr %23, ptr %5, align 8
  store i32 0, ptr %6, align 4
  br label %27

27:                                               ; preds = %81, %1
  %28 = load i32, ptr %6, align 4
  %29 = load ptr, ptr %2, align 8
  %30 = getelementptr inbounds %struct.Abc_TtStore_t_, ptr %29, i32 0, i32 2
  %31 = load i32, ptr %30, align 8
  %32 = icmp slt i32 %28, %31
  br i1 %32, label %33, label %84

33:                                               ; preds = %27
  %34 = load ptr, ptr %2, align 8
  %35 = getelementptr inbounds %struct.Abc_TtStore_t_, ptr %34, i32 0, i32 3
  %36 = load ptr, ptr %35, align 8
  %37 = load i32, ptr %6, align 4
  %38 = sext i32 %37 to i64
  %39 = getelementptr inbounds ptr, ptr %36, i64 %38
  %40 = load ptr, ptr %39, align 8
  %41 = load ptr, ptr %2, align 8
  %42 = getelementptr inbounds %struct.Abc_TtStore_t_, ptr %41, i32 0, i32 1
  %43 = load i32, ptr %42, align 4
  %44 = load i32, ptr %3, align 4
  %45 = call i32 @Abc_TruthHashKey(ptr noundef %40, i32 noundef %43, i32 noundef %44)
  store i32 %45, ptr %8, align 4
  %46 = load ptr, ptr %2, align 8
  %47 = getelementptr inbounds %struct.Abc_TtStore_t_, ptr %46, i32 0, i32 3
  %48 = load ptr, ptr %47, align 8
  %49 = load i32, ptr %6, align 4
  %50 = load ptr, ptr %2, align 8
  %51 = getelementptr inbounds %struct.Abc_TtStore_t_, ptr %50, i32 0, i32 1
  %52 = load i32, ptr %51, align 4
  %53 = load ptr, ptr %4, align 8
  %54 = load ptr, ptr %5, align 8
  %55 = load i32, ptr %8, align 4
  %56 = call i32 @Abc_TruthHashLookup(ptr noundef %48, i32 noundef %49, i32 noundef %52, ptr noundef %53, ptr noundef %54, i32 noundef %55)
  %57 = icmp ne i32 %56, 0
  br i1 %57, label %58, label %65

58:                                               ; preds = %33
  %59 = load ptr, ptr %2, align 8
  %60 = getelementptr inbounds %struct.Abc_TtStore_t_, ptr %59, i32 0, i32 3
  %61 = load ptr, ptr %60, align 8
  %62 = load i32, ptr %6, align 4
  %63 = sext i32 %62 to i64
  %64 = getelementptr inbounds ptr, ptr %61, i64 %63
  store ptr null, ptr %64, align 8
  br label %80

65:                                               ; preds = %33
  %66 = load ptr, ptr %4, align 8
  %67 = load i32, ptr %8, align 4
  %68 = sext i32 %67 to i64
  %69 = getelementptr inbounds i32, ptr %66, i64 %68
  %70 = load i32, ptr %69, align 4
  %71 = load ptr, ptr %5, align 8
  %72 = load i32, ptr %6, align 4
  %73 = sext i32 %72 to i64
  %74 = getelementptr inbounds i32, ptr %71, i64 %73
  store i32 %70, ptr %74, align 4
  %75 = load i32, ptr %6, align 4
  %76 = load ptr, ptr %4, align 8
  %77 = load i32, ptr %8, align 4
  %78 = sext i32 %77 to i64
  %79 = getelementptr inbounds i32, ptr %76, i64 %78
  store i32 %75, ptr %79, align 4
  br label %80

80:                                               ; preds = %65, %58
  br label %81

81:                                               ; preds = %80
  %82 = load i32, ptr %6, align 4
  %83 = add nsw i32 %82, 1
  store i32 %83, ptr %6, align 4
  br label %27, !llvm.loop !4

84:                                               ; preds = %27
  %85 = load ptr, ptr %4, align 8
  %86 = icmp ne ptr %85, null
  br i1 %86, label %87, label %89

87:                                               ; preds = %84
  %88 = load ptr, ptr %4, align 8
  call void @free(ptr noundef %88) #8
  store ptr null, ptr %4, align 8
  br label %90

89:                                               ; preds = %84
  br label %90

90:                                               ; preds = %89, %87
  %91 = load ptr, ptr %5, align 8
  %92 = icmp ne ptr %91, null
  br i1 %92, label %93, label %95

93:                                               ; preds = %90
  %94 = load ptr, ptr %5, align 8
  call void @free(ptr noundef %94) #8
  store ptr null, ptr %5, align 8
  br label %96

95:                                               ; preds = %90
  br label %96

96:                                               ; preds = %95, %93
  store i32 1, ptr %7, align 4
  store i32 1, ptr %6, align 4
  br label %97

97:                                               ; preds = %128, %96
  %98 = load i32, ptr %6, align 4
  %99 = load ptr, ptr %2, align 8
  %100 = getelementptr inbounds %struct.Abc_TtStore_t_, ptr %99, i32 0, i32 2
  %101 = load i32, ptr %100, align 8
  %102 = icmp slt i32 %98, %101
  br i1 %102, label %103, label %131

103:                                              ; preds = %97
  %104 = load ptr, ptr %2, align 8
  %105 = getelementptr inbounds %struct.Abc_TtStore_t_, ptr %104, i32 0, i32 3
  %106 = load ptr, ptr %105, align 8
  %107 = load i32, ptr %6, align 4
  %108 = sext i32 %107 to i64
  %109 = getelementptr inbounds ptr, ptr %106, i64 %108
  %110 = load ptr, ptr %109, align 8
  %111 = icmp ne ptr %110, null
  br i1 %111, label %112, label %127

112:                                              ; preds = %103
  %113 = load ptr, ptr %2, align 8
  %114 = getelementptr inbounds %struct.Abc_TtStore_t_, ptr %113, i32 0, i32 3
  %115 = load ptr, ptr %114, align 8
  %116 = load i32, ptr %6, align 4
  %117 = sext i32 %116 to i64
  %118 = getelementptr inbounds ptr, ptr %115, i64 %117
  %119 = load ptr, ptr %118, align 8
  %120 = load ptr, ptr %2, align 8
  %121 = getelementptr inbounds %struct.Abc_TtStore_t_, ptr %120, i32 0, i32 3
  %122 = load ptr, ptr %121, align 8
  %123 = load i32, ptr %7, align 4
  %124 = add nsw i32 %123, 1
  store i32 %124, ptr %7, align 4
  %125 = sext i32 %123 to i64
  %126 = getelementptr inbounds ptr, ptr %122, i64 %125
  store ptr %119, ptr %126, align 8
  br label %127

127:                                              ; preds = %112, %103
  br label %128

128:                                              ; preds = %127
  %129 = load i32, ptr %6, align 4
  %130 = add nsw i32 %129, 1
  store i32 %130, ptr %6, align 4
  br label %97, !llvm.loop !6

131:                                              ; preds = %97
  %132 = load i32, ptr %7, align 4
  %133 = load ptr, ptr %2, align 8
  %134 = getelementptr inbounds %struct.Abc_TtStore_t_, ptr %133, i32 0, i32 2
  store i32 %132, ptr %134, align 8
  ret i32 %132
}