; Function Attrs: nounwind uwtable
define i32 @Abc_TruthNpnCountUnique(ptr noundef captures(none) %0) local_unnamed_addr #0 {
  %2 = getelementptr inbounds nuw i8, ptr %0, i64 8
  %3 = load i32, ptr %2, align 8
  %4 = add i32 %3, -1
  br label %.loopexit.i

.loopexit.i:                                      ; preds = %.loopexit.i.backedge, %1
  %.012.i = phi i32 [ %4, %1 ], [ %5, %.loopexit.i.backedge ]
  %5 = add i32 %.012.i, 1
  %6 = and i32 %.012.i, 1
  %.not.not.i = icmp eq i32 %6, 0
  br i1 %.not.not.i, label %.preheader.i, label %.loopexit.i.backedge

.loopexit.i.backedge:                             ; preds = %.lr.ph.i, %.loopexit.i
  br label %.loopexit.i, !llvm.loop !4

.preheader.i:                                     ; preds = %.loopexit.i
  %.not15.i = icmp ult i32 %5, 9
  br i1 %.not15.i, label %Abc_PrimeCudd.exit, label %.lr.ph.i

7:                                                ; preds = %.lr.ph.i
  %8 = add nuw nsw i32 %.01116.i, 2
  %9 = mul nuw nsw i32 %8, %8
  %.not.i = icmp ugt i32 %9, %5
  br i1 %.not.i, label %Abc_PrimeCudd.exit, label %.lr.ph.i, !llvm.loop !6

.lr.ph.i:                                         ; preds = %.preheader.i, %7
  %.01116.i = phi i32 [ %8, %7 ], [ 3, %.preheader.i ]
  %10 = urem i32 %5, %.01116.i
  %11 = icmp eq i32 %10, 0
  br i1 %11, label %.loopexit.i.backedge, label %7, !llvm.loop !4

Abc_PrimeCudd.exit:                               ; preds = %.preheader.i, %7
  %12 = sext i32 %5 to i64
  %13 = shl nsw i64 %12, 2
  %14 = tail call noalias ptr @malloc(i64 noundef %13) #16
  tail call void @llvm.memset.p0.i64(ptr align 1 %14, i8 -1, i64 %13, i1 false)
  %15 = tail call noalias ptr @malloc(i64 noundef %13) #16
  tail call void @llvm.memset.p0.i64(ptr align 1 %15, i8 -1, i64 %13, i1 false)
  %16 = icmp sgt i32 %3, 0
  br i1 %16, label %.lr.ph, label %._crit_edge

.lr.ph:                                           ; preds = %Abc_PrimeCudd.exit
  %17 = getelementptr inbounds nuw i8, ptr %0, i64 16
  %18 = getelementptr inbounds nuw i8, ptr %0, i64 4
  br label %19

19:                                               ; preds = %.lr.ph, %49
  %20 = phi i32 [ %3, %.lr.ph ], [ %50, %49 ]
  %indvars.iv = phi i64 [ 0, %.lr.ph ], [ %indvars.iv.next, %49 ]
  %21 = load ptr, ptr %17, align 8
  %22 = getelementptr inbounds nuw ptr, ptr %21, i64 %indvars.iv
  %23 = load ptr, ptr %22, align 8
  %24 = load i32, ptr %18, align 4
  %25 = icmp sgt i32 %24, 0
  br i1 %25, label %.lr.ph.preheader.i, label %Abc_TruthHashKey.exit

.lr.ph.preheader.i:                               ; preds = %19
  %wide.trip.count.i = zext nneg i32 %24 to i64
  br label %.lr.ph.i49

.lr.ph.i49:                                       ; preds = %.lr.ph.i49, %.lr.ph.preheader.i
  %indvars.iv.i = phi i64 [ 0, %.lr.ph.preheader.i ], [ %indvars.iv.next.i, %.lr.ph.i49 ]
  %.010.i = phi i64 [ 0, %.lr.ph.preheader.i ], [ %35, %.lr.ph.i49 ]
  %26 = getelementptr inbounds nuw i64, ptr %23, i64 %indvars.iv.i
  %27 = load i64, ptr %26, align 8
  %28 = trunc nuw nsw i64 %indvars.iv.i to i32
  %29 = urem i32 %28, 7
  %30 = zext nneg i32 %29 to i64
  %31 = getelementptr inbounds nuw [7 x i32], ptr @Abc_TruthHashKey.s_BigPrimes, i64 0, i64 %30
  %32 = load i32, ptr %31, align 4
  %33 = zext i32 %32 to i64
  %34 = mul i64 %27, %33
  %35 = add i64 %34, %.010.i
  %indvars.iv.next.i = add nuw nsw i64 %indvars.iv.i, 1
  %exitcond.not.i = icmp eq i64 %indvars.iv.next.i, %wide.trip.count.i
  br i1 %exitcond.not.i, label %Abc_TruthHashKey.exit, label %.lr.ph.i49, !llvm.loop !7

Abc_TruthHashKey.exit:                            ; preds = %.lr.ph.i49, %19
  %.0.lcssa.i = phi i64 [ 0, %19 ], [ %35, %.lr.ph.i49 ]
  %36 = urem i64 %.0.lcssa.i, %12
  %sext = shl i64 %36, 32
  %37 = ashr exact i64 %sext, 30
  %38 = getelementptr inbounds i8, ptr %14, i64 %37
  %.012.i50 = load i32, ptr %38, align 4
  %.not13.i = icmp eq i32 %.012.i50, -1
  br i1 %.not13.i, label %.loopexit, label %.lr.ph.i51

.lr.ph.i51:                                       ; preds = %Abc_TruthHashKey.exit
  %39 = sext i32 %24 to i64
  %40 = shl nsw i64 %39, 3
  br label %41

41:                                               ; preds = %45, %.lr.ph.i51
  %.014.i = phi i32 [ %.012.i50, %.lr.ph.i51 ], [ %.0.i, %45 ]
  %42 = sext i32 %.014.i to i64
  %43 = getelementptr inbounds ptr, ptr %21, i64 %42
  %44 = load ptr, ptr %43, align 8
  %bcmp.i = tail call i32 @bcmp(ptr %44, ptr %23, i64 %40)
  %.not11.i = icmp eq i32 %bcmp.i, 0
  br i1 %.not11.i, label %Abc_TruthHashLookup.exit, label %45

45:                                               ; preds = %41
  %46 = getelementptr inbounds i32, ptr %15, i64 %42
  %.0.i = load i32, ptr %46, align 4
  %.not.i52 = icmp eq i32 %.0.i, -1
  br i1 %.not.i52, label %.loopexit, label %41, !llvm.loop !8

Abc_TruthHashLookup.exit:                         ; preds = %41
  store ptr null, ptr %22, align 8
  %.pre = load i32, ptr %2, align 8
  br label %49

.loopexit:                                        ; preds = %45, %Abc_TruthHashKey.exit
  %47 = getelementptr inbounds nuw i32, ptr %15, i64 %indvars.iv
  store i32 %.012.i50, ptr %47, align 4
  %48 = trunc nuw nsw i64 %indvars.iv to i32
  store i32 %48, ptr %38, align 4
  br label %49

49:                                               ; preds = %Abc_TruthHashLookup.exit, %.loopexit
  %50 = phi i32 [ %.pre, %Abc_TruthHashLookup.exit ], [ %20, %.loopexit ]
  %indvars.iv.next = add nuw nsw i64 %indvars.iv, 1
  %51 = sext i32 %50 to i64
  %52 = icmp slt i64 %indvars.iv.next, %51
  br i1 %52, label %19, label %._crit_edge, !llvm.loop !9

._crit_edge:                                      ; preds = %49, %Abc_PrimeCudd.exit
  %53 = phi i32 [ %3, %Abc_PrimeCudd.exit ], [ %50, %49 ]
  %.not = icmp eq ptr %14, null
  br i1 %.not, label %55, label %54

54:                                               ; preds = %._crit_edge
  tail call void @free(ptr noundef nonnull %14) #17
  br label %55

55:                                               ; preds = %._crit_edge, %54
  %.not46 = icmp eq ptr %15, null
  br i1 %.not46, label %57, label %56

56:                                               ; preds = %55
  tail call void @free(ptr noundef nonnull %15) #17
  br label %57

57:                                               ; preds = %55, %56
  %58 = icmp sgt i32 %53, 1
  br i1 %58, label %.lr.ph64, label %._crit_edge65

.lr.ph64:                                         ; preds = %57
  %59 = getelementptr inbounds nuw i8, ptr %0, i64 16
  br label %60

60:                                               ; preds = %.lr.ph64, %69
  %61 = phi i32 [ %53, %.lr.ph64 ], [ %70, %69 ]
  %indvars.iv70 = phi i64 [ 1, %.lr.ph64 ], [ %indvars.iv.next71, %69 ]
  %.062 = phi i32 [ 1, %.lr.ph64 ], [ %.1, %69 ]
  %62 = load ptr, ptr %59, align 8
  %63 = getelementptr inbounds nuw ptr, ptr %62, i64 %indvars.iv70
  %64 = load ptr, ptr %63, align 8
  %.not47 = icmp eq ptr %64, null
  br i1 %.not47, label %69, label %65

65:                                               ; preds = %60
  %66 = add nsw i32 %.062, 1
  %67 = sext i32 %.062 to i64
  %68 = getelementptr inbounds ptr, ptr %62, i64 %67
  store ptr %64, ptr %68, align 8
  %.pre73 = load i32, ptr %2, align 8
  br label %69

69:                                               ; preds = %60, %65
  %70 = phi i32 [ %.pre73, %65 ], [ %61, %60 ]
  %.1 = phi i32 [ %66, %65 ], [ %.062, %60 ]
  %indvars.iv.next71 = add nuw nsw i64 %indvars.iv70, 1
  %71 = sext i32 %70 to i64
  %72 = icmp slt i64 %indvars.iv.next71, %71
  br i1 %72, label %60, label %._crit_edge65, !llvm.loop !10

._crit_edge65:                                    ; preds = %69, %57
  %.0.lcssa = phi i32 [ 1, %57 ], [ %.1, %69 ]
  store i32 %.0.lcssa, ptr %2, align 8
  ret i32 %.0.lcssa
}